; Function Attrs: mustprogress uwtable
define noundef zeroext i1 @_ZN32pxrInternal_v0_24__pxrReserved__22UsdSkel_SkelDefinition26GetJointSkelRestTransformsINS_10GfMatrix4fEEEbPNS_7VtArrayIT_EE(ptr noundef nonnull align 8 dereferenceable(496) %0, ptr noundef %1) local_unnamed_addr #0 align 2 {
  %3 = alloca %"class.pxrInternal_v0_24__pxrReserved__::TfCallContext", align 8
  call void @llvm.lifetime.start.p0(i64 40, ptr nonnull %3)
  %4 = getelementptr inbounds nuw i8, ptr %0, i64 448
  %5 = load atomic i32, ptr %4 seq_cst, align 8
  %6 = and i32 %5, 2
  %.not.i = icmp eq i32 %6, 0
  br i1 %.not.i, label %_ZN32pxrInternal_v0_24__pxrReserved__22UsdSkel_SkelDefinition27_GetJointSkelRestTransformsILi32ENS_10GfMatrix4fEEEbPNS_7VtArrayIT0_EE.exit, label %7

7:                                                ; preds = %2
  %.not6.i = icmp eq ptr %1, null
  br i1 %.not6.i, label %8, label %13

8:                                                ; preds = %7
  store ptr @.str.2, ptr %3, align 8
  %9 = getelementptr inbounds nuw i8, ptr %3, i64 8
  store ptr @__func__._ZN32pxrInternal_v0_24__pxrReserved__22UsdSkel_SkelDefinition27_GetJointSkelRestTransformsILi4ENS_10GfMatrix4dEEEbPNS_7VtArrayIT0_EE, ptr %9, align 8
  %10 = getelementptr inbounds nuw i8, ptr %3, i64 16
  store i64 188, ptr %10, align 8
  %11 = getelementptr inbounds nuw i8, ptr %3, i64 24
  store ptr @__PRETTY_FUNCTION__._ZN32pxrInternal_v0_24__pxrReserved__22UsdSkel_SkelDefinition27_GetJointSkelRestTransformsILi32ENS_10GfMatrix4fEEEbPNS_7VtArrayIT0_EE, ptr %11, align 8
  %12 = getelementptr inbounds nuw i8, ptr %3, i64 32
  store i8 0, ptr %12, align 8
  call void (ptr, i32, ptr, ...) @_ZN32pxrInternal_v0_24__pxrReserved__18Tf_PostErrorHelperERKNS_13TfCallContextENS_16TfDiagnosticTypeEPKcz(ptr noundef nonnull align 8 dereferenceable(33) %3, i32 noundef 1, ptr noundef nonnull @.str.6)
  br label %_ZN32pxrInternal_v0_24__pxrReserved__22UsdSkel_SkelDefinition27_GetJointSkelRestTransformsILi32ENS_10GfMatrix4fEEEbPNS_7VtArrayIT0_EE.exit

13:                                               ; preds = %7
  %14 = and i32 %5, 32
  %.not7.i = icmp eq i32 %14, 0
  br i1 %.not7.i, label %15, label %17

15:                                               ; preds = %13
  %16 = tail call noundef zeroext i1 @_ZN32pxrInternal_v0_24__pxrReserved__22UsdSkel_SkelDefinition31_ComputeJointSkelRestTransformsILi32ENS_10GfMatrix4fEEEbv(ptr noundef nonnull align 8 dereferenceable(496) %0)
  br i1 %16, label %17, label %_ZN32pxrInternal_v0_24__pxrReserved__22UsdSkel_SkelDefinition27_GetJointSkelRestTransformsILi32ENS_10GfMatrix4fEEEbPNS_7VtArrayIT0_EE.exit

17:                                               ; preds = %15, %13
  %18 = getelementptr inbounds i8, ptr %0, i64 248
  %19 = tail call noundef nonnull align 8 dereferenceable(40) ptr @_ZN32pxrInternal_v0_24__pxrReserved__7VtArrayINS_10GfMatrix4fEEaSERKS2_(ptr noundef nonnull align 8 dereferenceable(40) %1, ptr noundef nonnull align 8 dereferenceable(40) %18)
  br label %_ZN32pxrInternal_v0_24__pxrReserved__22UsdSkel_SkelDefinition27_GetJointSkelRestTransformsILi32ENS_10GfMatrix4fEEEbPNS_7VtArrayIT0_EE.exit

_ZN32pxrInternal_v0_24__pxrReserved__22UsdSkel_SkelDefinition27_GetJointSkelRestTransformsILi32ENS_10GfMatrix4fEEEbPNS_7VtArrayIT0_EE.exit: ; preds = %2, %8, %15, %17
  %.0.i = phi i1 [ true, %17 ], [ false, %8 ], [ false, %15 ], [ false, %2 ]
  call void @llvm.lifetime.end.p0(i64 40, ptr nonnull %3)
  ret i1 %.0.i
}